target datalayout = "e-m:e-p270:32:32-p271:32:32-p272:64:64-i64:64-i128:128-f80:128-n8:16:32:64-S128"
target triple = "x86_64-pc-linux-gnu"

; Function Attrs: nounwind uwtable
define internal void @filter16_simple_low(ptr noundef %0, ptr noundef %1, ptr noundef %2, i32 noundef %3) #2 {
  %5 = alloca ptr, align 8
  %6 = alloca ptr, align 8
  %7 = alloca ptr, align 8
  %8 = alloca i32, align 4
  %9 = alloca [2 x ptr], align 16
  %10 = alloca i32, align 4
  store ptr %0, ptr %5, align 8, !tbaa !66
  store ptr %1, ptr %6, align 8, !tbaa !99
  store ptr %2, ptr %7, align 8, !tbaa !100
  store i32 %3, ptr %8, align 4, !tbaa !24
  call void @llvm.lifetime.start.p0(i64 16, ptr %9) #10
  %11 = load ptr, ptr %6, align 8, !tbaa !99
  %12 = getelementptr inbounds ptr, ptr %11, i64 0
  %13 = load ptr, ptr %12, align 8, !tbaa !88
  store ptr %13, ptr %9, align 8, !tbaa !100
  %14 = getelementptr inbounds ptr, ptr %9, i64 1
  %15 = load ptr, ptr %6, align 8, !tbaa !99
  %16 = getelementptr inbounds ptr, ptr %15, i64 1
  %17 = load ptr, ptr %16, align 8, !tbaa !88
  store ptr %17, ptr %14, align 8, !tbaa !100
  call void @llvm.lifetime.start.p0(i64 4, ptr %10) #10
  %18 = load i32, ptr %8, align 4, !tbaa !24
  %19 = sdiv i32 %18, 2
  store i32 %19, ptr %8, align 4, !tbaa !24
  store i32 0, ptr %10, align 4, !tbaa !24
  br label %20

20:                                               ; preds = %50, %4
  %21 = load i32, ptr %10, align 4, !tbaa !24
  %22 = load i32, ptr %8, align 4, !tbaa !24
  %23 = icmp slt i32 %21, %22
  br i1 %23, label %24, label %53

24:                                               ; preds = %20
  %25 = getelementptr inbounds [2 x ptr], ptr %9, i64 0, i64 0
  %26 = load ptr, ptr %25, align 16, !tbaa !100
  %27 = getelementptr inbounds nuw i16, ptr %26, i32 1
  store ptr %27, ptr %25, align 16, !tbaa !100
  %28 = load i16, ptr %26, align 2, !tbaa !102
  %29 = zext i16 %28 to i32
  %30 = load ptr, ptr %7, align 8, !tbaa !100
  %31 = getelementptr inbounds i16, ptr %30, i64 0
  %32 = load i16, ptr %31, align 2, !tbaa !102
  %33 = sext i16 %32 to i32
  %34 = mul nsw i32 %29, %33
  %35 = load ptr, ptr %5, align 8, !tbaa !66
  store i32 %34, ptr %35, align 4, !tbaa !24
  %36 = getelementptr inbounds [2 x ptr], ptr %9, i64 0, i64 1
  %37 = load ptr, ptr %36, align 8, !tbaa !100
  %38 = getelementptr inbounds nuw i16, ptr %37, i32 1
  store ptr %38, ptr %36, align 8, !tbaa !100
  %39 = load i16, ptr %37, align 2, !tbaa !102
  %40 = zext i16 %39 to i32
  %41 = load ptr, ptr %7, align 8, !tbaa !100
  %42 = getelementptr inbounds i16, ptr %41, i64 1
  %43 = load i16, ptr %42, align 2, !tbaa !102
  %44 = sext i16 %43 to i32
  %45 = mul nsw i32 %40, %44
  %46 = load ptr, ptr %5, align 8, !tbaa !66
  %47 = getelementptr inbounds nuw i32, ptr %46, i32 1
  store ptr %47, ptr %5, align 8, !tbaa !66
  %48 = load i32, ptr %46, align 4, !tbaa !24
  %49 = add nsw i32 %48, %45
  store i32 %49, ptr %46, align 4, !tbaa !24
  br label %50

50:                                               ; preds = %24
  %51 = load i32, ptr %10, align 4, !tbaa !24
  %52 = add nsw i32 %51, 1
  store i32 %52, ptr %10, align 4, !tbaa !24
  br label %20, !llvm.loop !109

53:                                               ; preds = %20
  call void @llvm.lifetime.end.p0(i64 4, ptr %10) #10
  call void @llvm.lifetime.end.p0(i64 16, ptr %9) #10
  ret void
}