; Function Attrs: nofree norecurse nosync nounwind memory(read, argmem: readwrite, inaccessiblemem: none) uwtable
define internal void @filter16_simple_low(ptr noundef writeonly captures(none) %0, ptr noundef readonly captures(none) %1, ptr noundef readonly captures(none) %2, i32 noundef %3) #6 {
  %5 = sdiv i32 %3, 2
  %6 = icmp sgt i32 %3, 1
  br i1 %6, label %.lr.ph, label %._crit_edge

.lr.ph:                                           ; preds = %4
  %7 = getelementptr inbounds nuw i8, ptr %1, i64 8
  %8 = load ptr, ptr %7, align 8, !tbaa !78
  %9 = load ptr, ptr %1, align 8, !tbaa !78
  %10 = load i16, ptr %2, align 2, !tbaa !87
  %11 = sext i16 %10 to i32
  %12 = getelementptr inbounds nuw i8, ptr %2, i64 2
  %13 = load i16, ptr %12, align 2, !tbaa !87
  %14 = sext i16 %13 to i32
  br label %15

15:                                               ; preds = %.lr.ph, %15
  %.013 = phi i32 [ 0, %.lr.ph ], [ %26, %15 ]
  %.sroa.0.012 = phi ptr [ %9, %.lr.ph ], [ %16, %15 ]
  %.sroa.5.011 = phi ptr [ %8, %.lr.ph ], [ %20, %15 ]
  %.0910 = phi ptr [ %0, %.lr.ph ], [ %24, %15 ]
  %16 = getelementptr inbounds nuw i8, ptr %.sroa.0.012, i64 2
  %17 = load i16, ptr %.sroa.0.012, align 2, !tbaa !87
  %18 = zext i16 %17 to i32
  %19 = mul nsw i32 %11, %18
  %20 = getelementptr inbounds nuw i8, ptr %.sroa.5.011, i64 2
  %21 = load i16, ptr %.sroa.5.011, align 2, !tbaa !87
  %22 = zext i16 %21 to i32
  %23 = mul nsw i32 %14, %22
  %24 = getelementptr inbounds nuw i8, ptr %.0910, i64 4
  %25 = add nsw i32 %23, %19
  store i32 %25, ptr %.0910, align 4, !tbaa !58
  %26 = add nuw nsw i32 %.013, 1
  %exitcond.not = icmp eq i32 %26, %5
  br i1 %exitcond.not, label %._crit_edge, label %15, !llvm.loop !94

._crit_edge:                                      ; preds = %15, %4
  ret void
}